; Function Attrs: nounwind uwtable
define ptr @Gia_ManDeriveSatSolver(ptr noundef %0, ptr noundef %1) local_unnamed_addr #0 {
  %3 = tail call ptr @Gia_ManToAigSimple(ptr noundef %0) #17
  %4 = getelementptr i8, ptr %3, i64 140
  %.val = load i32, ptr %4, align 4, !tbaa !43
  %5 = tail call ptr @Cnf_Derive(ptr noundef %3, i32 noundef %.val) #17
  %.not = icmp eq ptr %1, null
  br i1 %.not, label %.critedge, label %6

6:                                                ; preds = %2
  %7 = getelementptr inbounds nuw i8, ptr %1, i64 4
  store i32 0, ptr %7, align 4, !tbaa !62
  %8 = getelementptr inbounds nuw i8, ptr %3, i64 16
  %9 = load ptr, ptr %8, align 8, !tbaa !76
  %10 = getelementptr i8, ptr %9, i64 4
  %.val1720 = load i32, ptr %10, align 4, !tbaa !77
  %11 = icmp sgt i32 %.val1720, 0
  br i1 %11, label %.lr.ph, label %.critedge

.lr.ph:                                           ; preds = %6
  %12 = getelementptr inbounds nuw i8, ptr %5, i64 32
  %.phi.trans.insert.i = getelementptr inbounds nuw i8, ptr %1, i64 8
  br label %13

13:                                               ; preds = %.lr.ph, %Vec_IntPush.exit
  %indvars.iv = phi i64 [ 0, %.lr.ph ], [ %indvars.iv.next, %Vec_IntPush.exit ]
  %14 = phi ptr [ %9, %.lr.ph ], [ %51, %Vec_IntPush.exit ]
  %15 = getelementptr i8, ptr %14, i64 8
  %.val18 = load ptr, ptr %15, align 8, !tbaa !79
  %16 = getelementptr inbounds nuw ptr, ptr %.val18, i64 %indvars.iv
  %17 = load ptr, ptr %16, align 8, !tbaa !80
  %18 = load ptr, ptr %12, align 8, !tbaa !81
  %19 = getelementptr i8, ptr %17, i64 36
  %.val19 = load i32, ptr %19, align 4, !tbaa !84
  %20 = sext i32 %.val19 to i64
  %21 = getelementptr inbounds i32, ptr %18, i64 %20
  %22 = load i32, ptr %21, align 4, !tbaa !43
  %23 = load i32, ptr %7, align 4, !tbaa !62
  %24 = load i32, ptr %1, align 8, !tbaa !63
  %25 = icmp eq i32 %23, %24
  br i1 %25, label %26, label %.Vec_IntGrow.exit10_crit_edge.i

.Vec_IntGrow.exit10_crit_edge.i:                  ; preds = %13
  %.pre.i = load ptr, ptr %.phi.trans.insert.i, align 8, !tbaa !64
  br label %Vec_IntPush.exit

26:                                               ; preds = %13
  %27 = icmp slt i32 %23, 16
  br i1 %27, label %28, label %35

28:                                               ; preds = %26
  %29 = load ptr, ptr %.phi.trans.insert.i, align 8, !tbaa !64
  %.not9.i.i = icmp eq ptr %29, null
  br i1 %.not9.i.i, label %32, label %30

30:                                               ; preds = %28
  %31 = tail call dereferenceable_or_null(64) ptr @realloc(ptr noundef nonnull %29, i64 noundef 64) #20
  br label %Vec_IntGrow.exit.i

32:                                               ; preds = %28
  %33 = tail call noalias dereferenceable_or_null(64) ptr @malloc(i64 noundef 64) #19
  br label %Vec_IntGrow.exit.i

Vec_IntGrow.exit.i:                               ; preds = %32, %30
  %34 = phi ptr [ %31, %30 ], [ %33, %32 ]
  store ptr %34, ptr %.phi.trans.insert.i, align 8, !tbaa !64
  store i32 16, ptr %1, align 8, !tbaa !63
  br label %Vec_IntPush.exit

35:                                               ; preds = %26
  %36 = shl nuw nsw i32 %23, 1
  %37 = load ptr, ptr %.phi.trans.insert.i, align 8, !tbaa !64
  %.not9.i9.i = icmp eq ptr %37, null
  %38 = zext nneg i32 %36 to i64
  %39 = shl nuw nsw i64 %38, 2
  br i1 %.not9.i9.i, label %42, label %40

40:                                               ; preds = %35
  %41 = tail call ptr @realloc(ptr noundef nonnull %37, i64 noundef %39) #20
  br label %44

42:                                               ; preds = %35
  %43 = tail call noalias ptr @malloc(i64 noundef %39) #19
  br label %44

44:                                               ; preds = %42, %40
  %45 = phi ptr [ %41, %40 ], [ %43, %42 ]
  store ptr %45, ptr %.phi.trans.insert.i, align 8, !tbaa !64
  store i32 %36, ptr %1, align 8, !tbaa !63
  br label %Vec_IntPush.exit

Vec_IntPush.exit:                                 ; preds = %.Vec_IntGrow.exit10_crit_edge.i, %Vec_IntGrow.exit.i, %44
  %46 = phi ptr [ %.pre.i, %.Vec_IntGrow.exit10_crit_edge.i ], [ %45, %44 ], [ %34, %Vec_IntGrow.exit.i ]
  %47 = load i32, ptr %7, align 4, !tbaa !62
  %48 = add nsw i32 %47, 1
  store i32 %48, ptr %7, align 4, !tbaa !62
  %49 = sext i32 %47 to i64
  %50 = getelementptr inbounds i32, ptr %46, i64 %49
  store i32 %22, ptr %50, align 4, !tbaa !43
  %indvars.iv.next = add nuw nsw i64 %indvars.iv, 1
  %51 = load ptr, ptr %8, align 8, !tbaa !76
  %52 = getelementptr i8, ptr %51, i64 4
  %.val17 = load i32, ptr %52, align 4, !tbaa !77
  %53 = sext i32 %.val17 to i64
  %54 = icmp slt i64 %indvars.iv.next, %53
  br i1 %54, label %13, label %.critedge, !llvm.loop !85

.critedge:                                        ; preds = %Vec_IntPush.exit, %6, %2
  tail call void @Aig_ManStop(ptr noundef nonnull %3) #17
  %55 = tail call ptr @Cnf_DataWriteIntoSolver(ptr noundef %5, i32 noundef 1, i32 noundef 0) #17
  tail call void @Cnf_DataFree(ptr noundef %5) #17
  ret ptr %55
}